(lp0
(lp1
I120
aI49
aI0
aI5
aS'NotRhythmic'
p2
aa(lp3
I118
aI47
aI0
aI35
ag2
aa(lp4
I120
aI49
aI0
aI5
ag2
aa(lp5
I139
aI67
aI1
aI131
aS'Rhythmic'
p6
aa(lp7
I122
aI70
aI1
aI1
ag6
aa(lp8
I143
aI97
aI1
aI356
ag6
aa(lp9
I120
aI49
aI0
aI5
ag2
aa(lp10
I105
aI22
aI0
aI9
ag2
aa(lp11
I125
aI91
aI1
aI122
ag6
aa(lp12
I116
aI15
aI0
aI4
ag2
aa(lp13
I123
aI71
aI1
aI38
ag6
aa(lp14
I121
aI51
aI1
aI100
ag6
aa(lp15
I136
aI94
aI1
aI289
ag6
aa(lp16
I135
aI72
aI1
aI140
ag6
aa(lp17
I124
aI98
aI1
aI193
ag6
aa(lp18
I121
aI51
aI1
aI100
ag6
aa(lp19
I141
aI96
aI1
aI212
ag6
aa(lp20
I117
aI45
aI0
aI2
ag2
aa(lp21
I108
aI12
aI0
aI0
ag2
aa(lp22
I126
aI80
aI1
aI220
ag6
aa(lp23
I120
aI49
aI0
aI5
ag2
aa(lp24
I127
aI67
aI1
aI19
ag6
aa(lp25
I126
aI90
aI1
aI148
ag6
aa(lp26
I130
aI78
aI1
aI56
ag6
aa(lp27
I123
aI78
aI1
aI35
ag6
aa(lp28
I136
aI85
aI1
aI191
ag6
aa(lp29
I124
aI82
aI1
aI66
ag6
aa(lp30
I110
aI17
aI0
aI14
ag2
aa(lp31
I124
aI91
aI1
aI178
ag6
aa(lp32
I121
aI51
aI1
aI100
ag6
aa(lp33
I126
aI72
aI1
aI60
ag6
aa(lp34
I117
aI46
aI0
aI70
ag2
aa(lp35
I134
aI79
aI1
aI131
ag6
aa(lp36
I123
aI74
aI1
aI14
ag6
aa(lp37
I117
aI46
aI0
aI70
ag2
aa(lp38
I111
aI42
aI0
aI78
ag2
aa(lp39
I132
aI53
aI1
aI58
ag6
aa(lp40
I135
aI88
aI1
aI167
ag6
aa.