(lp0
(lp1
I120
aI49
aI5
acconf
TEMPOS
p2
(S'NotRhythmic'
p3
tp4
Rp5
aa(lp6
I124
aI98
aI193
ag2
(S'Rhythmic'
p7
tp8
Rp9
aa(lp10
I120
aI15
aI0
ag5
aa(lp11
I136
aI54
aI79
ag9
aa(lp12
I133
aI53
aI146
ag9
aa(lp13
I108
aI12
aI0
ag5
aa(lp14
I129
aI63
aI31
ag9
aa(lp15
I121
aI51
aI100
ag9
aa(lp16
I121
aI51
aI100
ag9
aa(lp17
I168
aI95
aI479
ag9
aa(lp18
I120
aI49
aI5
ag5
aa(lp19
I154
aI63
aI112
ag9
aa(lp20
I139
aI67
aI131
ag9
aa(lp21
I90
aI7
aI2
ag5
aa(lp22
I124
aI92
aI125
ag9
aa(lp23
I126
aI80
aI220
ag9
aa(lp24
I141
aI87
aI166
ag9
aa(lp25
I128
aI90
aI378
ag9
aa(lp26
I136
aI85
aI191
ag9
aa(lp27
I124
aI85
aI86
ag9
aa(lp28
I121
aI68
aI5
ag9
aa(lp29
I158
aI64
aI125
ag9
aa(lp30
I124
aI78
aI43
ag9
aa(lp31
I126
aI95
aI205
ag9
aa(lp32
I132
aI89
aI255
ag9
aa(lp33
I122
aI70
aI1
ag9
aa(lp34
I127
aI92
aI229
ag9
aa(lp35
I110
aI42
aI52
ag5
aa(lp36
I93
aI21
aI25
ag5
aa(lp37
I99
aI23
aI6
ag5
aa(lp38
I138
aI94
aI173
ag9
aa(lp39
I120
aI49
aI5
ag5
aa(lp40
I124
aI84
aI86
ag9
aa(lp41
I117
aI46
aI70
ag5
aa(lp42
I128
aI95
aI193
ag9
aa(lp43
I120
aI5
aI5
ag5
aa(lp44
I120
aI49
aI5
ag5
aa(lp45
I125
aI78
aI72
ag9
aa(lp46
I132
aI53
aI58
ag9
aa(lp47
I118
aI17
aI6
ag5
aa(lp48
I98
aI34
aI33
ag5
aa(lp49
I118
aI14
aI7
ag5
aa(lp50
I120
aI49
aI5
ag5
aa(lp51
I138
aI97
aI689
ag9
aa(lp52
I110
aI17
aI14
ag5
aa(lp53
I124
aI75
aI38
ag9
aa(lp54
I108
aI12
aI0
ag5
aa(lp55
I116
aI15
aI4
ag5
aa(lp56
I123
aI78
aI35
ag9
aa(lp57
I87
aI20
aI16
ag5
aa(lp58
I89
aI5
aI3
ag5
aa(lp59
I117
aI19
aI26
ag5
aa(lp60
I124
aI92
aI153
ag9
aa(lp61
I141
aI96
aI212
ag9
aa(lp62
I114
aI11
aI6
ag5
aa(lp63
I92
aI7
aI0
ag5
aa(lp64
I120
aI49
aI5
ag5
aa(lp65
I167
aI72
aI145
ag9
aa(lp66
I125
aI91
aI122
ag9
aa(lp67
I117
aI45
aI2
ag5
aa(lp68
I121
aI51
aI35
ag9
aa(lp69
I126
aI72
aI60
ag9
aa(lp70
I126
aI90
aI148
ag9
aa(lp71
I113
aI12
aI5
ag5
aa.